; Function Attrs: nounwind uwtable
define ptr @l_Lean_Compiler_LCNF_mkCasesResultType(ptr noundef %0, ptr noundef %1, ptr noundef %2, ptr noundef %3, ptr noundef %4, ptr noundef %5) local_unnamed_addr #0 {
  %7 = tail call zeroext i8 @l_Array_isEmpty___rarg(ptr noundef %0) #5
  %8 = icmp eq i8 %7, 0
  br i1 %8, label %9, label %11

9:                                                ; preds = %6
  %10 = tail call ptr @l_Lean_Compiler_LCNF_mkCasesResultType___lambda__1(ptr noundef %0, ptr nonnull poison, ptr noundef %1, ptr noundef %2, ptr noundef %3, ptr noundef %4, ptr noundef %5)
  br label %60

11:                                               ; preds = %6
  %12 = ptrtoint ptr %0 to i64
  %13 = and i64 %12, 1
  %.not = icmp eq i64 %13, 0
  br i1 %.not, label %14, label %lean_dec.exit31

14:                                               ; preds = %11
  %15 = load i32, ptr %0, align 4, !tbaa !4
  %16 = icmp sgt i32 %15, 1
  br i1 %16, label %17, label %19, !prof !9

17:                                               ; preds = %14
  %18 = add nsw i32 %15, -1
  store i32 %18, ptr %0, align 4, !tbaa !4
  br label %lean_dec.exit31

19:                                               ; preds = %14
  %.not.i = icmp eq i32 %15, 0
  br i1 %.not.i, label %lean_dec.exit31, label %20

20:                                               ; preds = %19
  tail call void @lean_dec_ref_cold(ptr noundef nonnull %0) #5
  br label %lean_dec.exit31

lean_dec.exit31:                                  ; preds = %20, %19, %17, %11
  %21 = load ptr, ptr @l_Lean_Compiler_LCNF_mkCasesResultType___closed__2, align 8, !tbaa !10
  %22 = tail call ptr @l_Lean_throwError___at_Lean_Compiler_LCNF_mkCasesResultType___spec__2(ptr noundef %21, ptr poison, ptr noundef %2, ptr noundef %3, ptr noundef %4, ptr noundef %5)
  %.val = load i32, ptr %22, align 4, !tbaa !4
  %23 = icmp eq i32 %.val, 1
  br i1 %23, label %60, label %24

24:                                               ; preds = %lean_dec.exit31
  %25 = getelementptr inbounds nuw i8, ptr %22, i64 8
  %26 = load ptr, ptr %25, align 8, !tbaa !10
  %27 = getelementptr inbounds nuw i8, ptr %22, i64 16
  %28 = load ptr, ptr %27, align 8, !tbaa !10
  %29 = ptrtoint ptr %28 to i64
  %30 = and i64 %29, 1
  %.not38 = icmp eq i64 %30, 0
  br i1 %.not38, label %31, label %lean_inc.exit30

31:                                               ; preds = %24
  %.val.i = load i32, ptr %28, align 4, !tbaa !4
  %32 = icmp sgt i32 %.val.i, 0
  br i1 %32, label %33, label %35, !prof !9

33:                                               ; preds = %31
  %34 = add nuw i32 %.val.i, 1
  store i32 %34, ptr %28, align 4, !tbaa !4
  br label %lean_inc.exit30

35:                                               ; preds = %31
  %.not.i34 = icmp eq i32 %.val.i, 0
  br i1 %.not.i34, label %lean_inc.exit30, label %36

36:                                               ; preds = %35
  tail call void @lean_inc_ref_cold(ptr noundef nonnull %28) #5
  br label %lean_inc.exit30

lean_inc.exit30:                                  ; preds = %36, %35, %33, %24
  %37 = ptrtoint ptr %26 to i64
  %38 = and i64 %37, 1
  %.not39 = icmp eq i64 %38, 0
  br i1 %.not39, label %39, label %lean_inc.exit

39:                                               ; preds = %lean_inc.exit30
  %.val.i35 = load i32, ptr %26, align 4, !tbaa !4
  %40 = icmp sgt i32 %.val.i35, 0
  br i1 %40, label %41, label %43, !prof !9

41:                                               ; preds = %39
  %42 = add nuw i32 %.val.i35, 1
  store i32 %42, ptr %26, align 4, !tbaa !4
  br label %lean_inc.exit

43:                                               ; preds = %39
  %.not.i36 = icmp eq i32 %.val.i35, 0
  br i1 %.not.i36, label %lean_inc.exit, label %44

44:                                               ; preds = %43
  tail call void @lean_inc_ref_cold(ptr noundef nonnull %26) #5
  br label %lean_inc.exit

lean_inc.exit:                                    ; preds = %44, %43, %41, %lean_inc.exit30
  %45 = ptrtoint ptr %22 to i64
  %46 = and i64 %45, 1
  %.not40 = icmp eq i64 %46, 0
  br i1 %.not40, label %47, label %lean_dec.exit

47:                                               ; preds = %lean_inc.exit
  %48 = load i32, ptr %22, align 4, !tbaa !4
  %49 = icmp sgt i32 %48, 1
  br i1 %49, label %50, label %52, !prof !9

50:                                               ; preds = %47
  %51 = add nsw i32 %48, -1
  store i32 %51, ptr %22, align 4, !tbaa !4
  br label %lean_dec.exit

52:                                               ; preds = %47
  %.not.i32 = icmp eq i32 %48, 0
  br i1 %.not.i32, label %lean_dec.exit, label %53

53:                                               ; preds = %52
  tail call void @lean_dec_ref_cold(ptr noundef nonnull %22) #5
  br label %lean_dec.exit

lean_dec.exit:                                    ; preds = %53, %52, %50, %lean_inc.exit
  tail call void @lean_inc_heartbeat() #5
  %54 = tail call noalias ptr @mi_malloc_small(i64 noundef 24) #5
  %55 = icmp eq ptr %54, null
  br i1 %55, label %56, label %lean_alloc_ctor.exit

56:                                               ; preds = %lean_dec.exit
  tail call void @lean_internal_panic_out_of_memory() #6
  unreachable

lean_alloc_ctor.exit:                             ; preds = %lean_dec.exit
  %57 = getelementptr inbounds nuw i8, ptr %54, i64 4
  store i32 1, ptr %54, align 4, !tbaa !4
  store i32 16908312, ptr %57, align 4
  %58 = getelementptr inbounds nuw i8, ptr %54, i64 8
  store ptr %26, ptr %58, align 8, !tbaa !10
  %59 = getelementptr inbounds nuw i8, ptr %54, i64 16
  store ptr %28, ptr %59, align 8, !tbaa !10
  br label %60

60:                                               ; preds = %lean_alloc_ctor.exit, %lean_dec.exit31, %9
  %.0 = phi ptr [ %10, %9 ], [ %54, %lean_alloc_ctor.exit ], [ %22, %lean_dec.exit31 ]
  ret ptr %.0
}